target datalayout = "e-m:e-p270:32:32-p271:32:32-p272:64:64-i64:64-i128:128-f80:128-n8:16:32:64-S128"
target triple = "x86_64-pc-linux-gnu"

%struct.dirent = type { i64, i64, i16, i8, [256 x i8] }
%struct.WalSummaryFile = type { i64, i64, i32 }

@.str = private unnamed_addr constant [17 x i8] c"pg_wal/summaries\00", align 1
@.str.1 = private unnamed_addr constant [21 x i8] c"%08X%08X%08X%08X%08X\00", align 1
@.str.12 = private unnamed_addr constant [17 x i8] c"0123456789ABCDEF\00", align 1
@.str.13 = private unnamed_addr constant [9 x i8] c".summary\00", align 1

; Function Attrs: nounwind uwtable
define internal zeroext i1 @IsWalSummaryFilename(ptr noundef %0) #0 {
  %2 = alloca ptr, align 8
  store ptr %0, ptr %2, align 8
  %3 = load ptr, ptr %2, align 8
  %4 = call i64 @strspn(ptr noundef %3, ptr noundef @.str.12) #11
  %5 = icmp eq i64 %4, 40
  br i1 %5, label %6, label %11

6:                                                ; preds = %1
  %7 = load ptr, ptr %2, align 8
  %8 = getelementptr inbounds i8, ptr %7, i64 40
  %9 = call i32 @strcmp(ptr noundef %8, ptr noundef @.str.13) #11
  %10 = icmp eq i32 %9, 0
  br label %11

11:                                               ; preds = %6, %1
  %12 = phi i1 [ false, %1 ], [ %10, %6 ]
  ret i1 %12
}

; Function Attrs: nounwind uwtable
define dso_local ptr @GetWalSummaries(i32 noundef %0, i64 noundef %1, i64 noundef %2) #0 {
  %4 = alloca i32, align 4
  %5 = alloca i64, align 8
  %6 = alloca i64, align 8
  %7 = alloca ptr, align 8
  %8 = alloca ptr, align 8
  %9 = alloca ptr, align 8
  %10 = alloca ptr, align 8
  %11 = alloca [5 x i32], align 16
  %12 = alloca i32, align 4
  %13 = alloca i64, align 8
  %14 = alloca i64, align 8
  %15 = alloca i32, align 4
  store i32 %0, ptr %4, align 4
  store i64 %1, ptr %5, align 8
  store i64 %2, ptr %6, align 8
  call void @llvm.lifetime.start.p0(i64 8, ptr %7) #10
  call void @llvm.lifetime.start.p0(i64 8, ptr %8) #10
  call void @llvm.lifetime.start.p0(i64 8, ptr %9) #10
  store ptr null, ptr %9, align 8
  %16 = call ptr @AllocateDir(ptr noundef @.str)
  store ptr %16, ptr %7, align 8
  br label %17

17:                                               ; preds = %94, %92, %3
  %18 = load ptr, ptr %7, align 8
  %19 = call ptr @ReadDir(ptr noundef %18, ptr noundef @.str)
  store ptr %19, ptr %8, align 8
  %20 = icmp ne ptr %19, null
  br i1 %20, label %21, label %95

21:                                               ; preds = %17
  call void @llvm.lifetime.start.p0(i64 8, ptr %10) #10
  call void @llvm.lifetime.start.p0(i64 20, ptr %11) #10
  call void @llvm.lifetime.start.p0(i64 4, ptr %12) #10
  call void @llvm.lifetime.start.p0(i64 8, ptr %13) #10
  call void @llvm.lifetime.start.p0(i64 8, ptr %14) #10
  %22 = load ptr, ptr %8, align 8
  %23 = getelementptr inbounds nuw %struct.dirent, ptr %22, i32 0, i32 4
  %24 = getelementptr inbounds [256 x i8], ptr %23, i64 0, i64 0
  %25 = call zeroext i1 @IsWalSummaryFilename(ptr noundef %24)
  br i1 %25, label %27, label %26

26:                                               ; preds = %21
  store i32 2, ptr %15, align 4
  br label %92, !llvm.loop !4

27:                                               ; preds = %21
  %28 = load ptr, ptr %8, align 8
  %29 = getelementptr inbounds nuw %struct.dirent, ptr %28, i32 0, i32 4
  %30 = getelementptr inbounds [256 x i8], ptr %29, i64 0, i64 0
  %31 = getelementptr inbounds [5 x i32], ptr %11, i64 0, i64 0
  %32 = getelementptr inbounds [5 x i32], ptr %11, i64 0, i64 1
  %33 = getelementptr inbounds [5 x i32], ptr %11, i64 0, i64 2
  %34 = getelementptr inbounds [5 x i32], ptr %11, i64 0, i64 3
  %35 = getelementptr inbounds [5 x i32], ptr %11, i64 0, i64 4
  %36 = call i32 (ptr, ptr, ...) @__isoc99_sscanf(ptr noundef %30, ptr noundef @.str.1, ptr noundef %31, ptr noundef %32, ptr noundef %33, ptr noundef %34, ptr noundef %35) #10
  %37 = getelementptr inbounds [5 x i32], ptr %11, i64 0, i64 0
  %38 = load i32, ptr %37, align 16
  store i32 %38, ptr %12, align 4
  %39 = getelementptr inbounds [5 x i32], ptr %11, i64 0, i64 1
  %40 = load i32, ptr %39, align 4
  %41 = zext i32 %40 to i64
  %42 = shl i64 %41, 32
  %43 = getelementptr inbounds [5 x i32], ptr %11, i64 0, i64 2
  %44 = load i32, ptr %43, align 8
  %45 = zext i32 %44 to i64
  %46 = or i64 %42, %45
  store i64 %46, ptr %13, align 8
  %47 = getelementptr inbounds [5 x i32], ptr %11, i64 0, i64 3
  %48 = load i32, ptr %47, align 4
  %49 = zext i32 %48 to i64
  %50 = shl i64 %49, 32
  %51 = getelementptr inbounds [5 x i32], ptr %11, i64 0, i64 4
  %52 = load i32, ptr %51, align 16
  %53 = zext i32 %52 to i64
  %54 = or i64 %50, %53
  store i64 %54, ptr %14, align 8
  %55 = load i32, ptr %4, align 4
  %56 = icmp ne i32 %55, 0
  br i1 %56, label %57, label %62

57:                                               ; preds = %27
  %58 = load i32, ptr %4, align 4
  %59 = load i32, ptr %12, align 4
  %60 = icmp ne i32 %58, %59
  br i1 %60, label %61, label %62

61:                                               ; preds = %57
  store i32 2, ptr %15, align 4
  br label %92, !llvm.loop !4

62:                                               ; preds = %57, %27
  %63 = load i64, ptr %5, align 8
  %64 = icmp eq i64 %63, 0
  br i1 %64, label %70, label %65

65:                                               ; preds = %62
  %66 = load i64, ptr %5, align 8
  %67 = load i64, ptr %14, align 8
  %68 = icmp uge i64 %66, %67
  br i1 %68, label %69, label %70

69:                                               ; preds = %65
  store i32 2, ptr %15, align 4
  br label %92, !llvm.loop !4

70:                                               ; preds = %65, %62
  %71 = load i64, ptr %6, align 8
  %72 = icmp eq i64 %71, 0
  br i1 %72, label %78, label %73

73:                                               ; preds = %70
  %74 = load i64, ptr %6, align 8
  %75 = load i64, ptr %13, align 8
  %76 = icmp ule i64 %74, %75
  br i1 %76, label %77, label %78

77:                                               ; preds = %73
  store i32 2, ptr %15, align 4
  br label %92, !llvm.loop !4

78:                                               ; preds = %73, %70
  %79 = call ptr @palloc(i64 noundef 24)
  store ptr %79, ptr %10, align 8
  %80 = load i32, ptr %12, align 4
  %81 = load ptr, ptr %10, align 8
  %82 = getelementptr inbounds nuw %struct.WalSummaryFile, ptr %81, i32 0, i32 2
  store i32 %80, ptr %82, align 8
  %83 = load i64, ptr %13, align 8
  %84 = load ptr, ptr %10, align 8
  %85 = getelementptr inbounds nuw %struct.WalSummaryFile, ptr %84, i32 0, i32 0
  store i64 %83, ptr %85, align 8
  %86 = load i64, ptr %14, align 8
  %87 = load ptr, ptr %10, align 8
  %88 = getelementptr inbounds nuw %struct.WalSummaryFile, ptr %87, i32 0, i32 1
  store i64 %86, ptr %88, align 8
  %89 = load ptr, ptr %9, align 8
  %90 = load ptr, ptr %10, align 8
  %91 = call ptr @lappend(ptr noundef %89, ptr noundef %90)
  store ptr %91, ptr %9, align 8
  store i32 0, ptr %15, align 4
  br label %92

92:                                               ; preds = %78, %77, %69, %61, %26
  call void @llvm.lifetime.end.p0(i64 8, ptr %14) #10
  call void @llvm.lifetime.end.p0(i64 8, ptr %13) #10
  call void @llvm.lifetime.end.p0(i64 4, ptr %12) #10
  call void @llvm.lifetime.end.p0(i64 20, ptr %11) #10
  call void @llvm.lifetime.end.p0(i64 8, ptr %10) #10
  %93 = load i32, ptr %15, align 4
  switch i32 %93, label %99 [
    i32 0, label %94
    i32 2, label %17
  ]

94:                                               ; preds = %92
  br label %17, !llvm.loop !4

95:                                               ; preds = %17
  %96 = load ptr, ptr %7, align 8
  %97 = call i32 @FreeDir(ptr noundef %96)
  %98 = load ptr, ptr %9, align 8
  store i32 1, ptr %15, align 4
  call void @llvm.lifetime.end.p0(i64 8, ptr %9) #10
  call void @llvm.lifetime.end.p0(i64 8, ptr %8) #10
  call void @llvm.lifetime.end.p0(i64 8, ptr %7) #10
  ret ptr %98

99:                                               ; preds = %92
  unreachable
}